; Function Attrs: nounwind uwtable
define void @Gia_ManDupAbsGates_rec(ptr noundef %0, ptr noundef %1) local_unnamed_addr #0 {
  %3 = getelementptr inbounds nuw i8, ptr %1, i64 8
  %4 = load i32, ptr %3, align 4, !tbaa !3
  %.not = icmp eq i32 %4, -1
  br i1 %.not, label %5, label %common.ret9

common.ret9:                                      ; preds = %2, %5
  ret void

5:                                                ; preds = %2
  %6 = load i64, ptr %1, align 4
  %7 = and i64 %6, 536870911
  %8 = sub nsw i64 0, %7
  %9 = getelementptr inbounds %struct.Gia_Obj_t_, ptr %1, i64 %8
  tail call void @Gia_ManDupAbsGates_rec(ptr noundef %0, ptr noundef nonnull %9)
  %10 = load i64, ptr %1, align 4
  %11 = lshr i64 %10, 32
  %12 = and i64 %11, 536870911
  %13 = sub nsw i64 0, %12
  %14 = getelementptr inbounds %struct.Gia_Obj_t_, ptr %1, i64 %13
  tail call void @Gia_ManDupAbsGates_rec(ptr noundef %0, ptr noundef nonnull %14)
  %15 = load i64, ptr %1, align 4
  %16 = and i64 %15, 536870911
  %17 = sub nsw i64 0, %16
  %18 = getelementptr inbounds %struct.Gia_Obj_t_, ptr %1, i64 %17, i32 1
  %19 = load i32, ptr %18, align 4, !tbaa !3
  %20 = trunc i64 %15 to i32
  %21 = lshr i32 %20, 29
  %22 = and i32 %21, 1
  %23 = xor i32 %22, %19
  %24 = lshr i64 %15, 32
  %25 = and i64 %24, 536870911
  %26 = sub nsw i64 0, %25
  %27 = getelementptr inbounds %struct.Gia_Obj_t_, ptr %1, i64 %26, i32 1
  %28 = load i32, ptr %27, align 4, !tbaa !3
  %29 = lshr i64 %15, 61
  %30 = trunc nuw nsw i64 %29 to i32
  %31 = and i32 %30, 1
  %32 = xor i32 %31, %28
  %33 = tail call fastcc i32 @Gia_ManAppendAnd(ptr noundef %0, i32 noundef %23, i32 noundef %32)
  store i32 %33, ptr %3, align 4, !tbaa !3
  br label %common.ret9
}